; Function Attrs: mustprogress nounwind uwtable
define dso_local noundef zeroext i1 @_ZNK31cmGeneratorExpressionDAGChecker24EvaluatingLinkExpressionEv(ptr noundef nonnull align 8 dereferenceable(126) %0) local_unnamed_addr #4 align 2 personality ptr @__gxx_personality_v0 {
  br label %2

2:                                                ; preds = %2, %1
  %.05.i = phi ptr [ %0, %1 ], [ %.0.i, %2 ]
  %.0.i = load ptr, ptr %.05.i, align 8
  %.not.i = icmp eq ptr %.0.i, null
  br i1 %.not.i, label %_ZNK31cmGeneratorExpressionDAGChecker3TopEv.exit, label %2, !llvm.loop !5

_ZNK31cmGeneratorExpressionDAGChecker3TopEv.exit: ; preds = %2
  %3 = getelementptr inbounds nuw i8, ptr %.05.i, i64 16
  %4 = tail call { i64, ptr } @_ZNKSt7__cxx1112basic_stringIcSt11char_traitsIcESaIcEEcvSt17basic_string_viewIcS2_EEv(ptr noundef nonnull align 8 dereferenceable(32) %3) #19
  %5 = extractvalue { i64, ptr } %4, 0
  %6 = extractvalue { i64, ptr } %4, 1
  switch i64 %5, label %_ZSteqIcSt11char_traitsIcEEbSt17basic_string_viewIT_T0_ES5_.exit [
    i64 16, label %_ZNSt11char_traitsIcE7compareEPKcS2_m.exit.i.i
    i64 12, label %_ZNSt11char_traitsIcE7compareEPKcS2_m.exit.i.i34
    i64 21, label %_ZNSt11char_traitsIcE7compareEPKcS2_m.exit.i.i42
    i64 11, label %_ZNSt11char_traitsIcE7compareEPKcS2_m.exit.i.i46
  ]

_ZNSt11char_traitsIcE7compareEPKcS2_m.exit.i.i:   ; preds = %_ZNK31cmGeneratorExpressionDAGChecker3TopEv.exit
  %bcmp.i = tail call i32 @bcmp(ptr noundef nonnull dereferenceable(16) %6, ptr noundef nonnull dereferenceable(16) @.str.14, i64 16)
  %7 = icmp eq i32 %bcmp.i, 0
  br i1 %7, label %_ZSteqIcSt11char_traitsIcEEbSt17basic_string_viewIT_T0_ES5_.exit, label %.thread56

_ZNSt11char_traitsIcE7compareEPKcS2_m.exit.i.i34: ; preds = %_ZNK31cmGeneratorExpressionDAGChecker3TopEv.exit
  %bcmp.i35 = tail call i32 @bcmp(ptr noundef nonnull dereferenceable(12) %6, ptr noundef nonnull dereferenceable(12) @.str.15, i64 12)
  %8 = icmp eq i32 %bcmp.i35, 0
  br i1 %8, label %_ZSteqIcSt11char_traitsIcEEbSt17basic_string_viewIT_T0_ES5_.exit, label %_ZNSt11char_traitsIcE7compareEPKcS2_m.exit.i.i38

_ZNSt11char_traitsIcE7compareEPKcS2_m.exit.i.i38: ; preds = %_ZNSt11char_traitsIcE7compareEPKcS2_m.exit.i.i34
  %bcmp.i39 = tail call i32 @bcmp(ptr noundef nonnull dereferenceable(12) %6, ptr noundef nonnull dereferenceable(12) @.str.16, i64 12)
  %9 = icmp eq i32 %bcmp.i39, 0
  br i1 %9, label %_ZSteqIcSt11char_traitsIcEEbSt17basic_string_viewIT_T0_ES5_.exit, label %.thread56

_ZNSt11char_traitsIcE7compareEPKcS2_m.exit.i.i42: ; preds = %_ZNK31cmGeneratorExpressionDAGChecker3TopEv.exit
  %bcmp.i43 = tail call i32 @bcmp(ptr noundef nonnull dereferenceable(21) %6, ptr noundef nonnull dereferenceable(21) @.str.17, i64 21)
  %10 = icmp eq i32 %bcmp.i43, 0
  br i1 %10, label %_ZSteqIcSt11char_traitsIcEEbSt17basic_string_viewIT_T0_ES5_.exit, label %.thread56

.thread56:                                        ; preds = %_ZNSt11char_traitsIcE7compareEPKcS2_m.exit.i.i42, %_ZNSt11char_traitsIcE7compareEPKcS2_m.exit.i.i38, %_ZNSt11char_traitsIcE7compareEPKcS2_m.exit.i.i
  br label %_ZSteqIcSt11char_traitsIcEEbSt17basic_string_viewIT_T0_ES5_.exit

_ZNSt11char_traitsIcE7compareEPKcS2_m.exit.i.i46: ; preds = %_ZNK31cmGeneratorExpressionDAGChecker3TopEv.exit
  %bcmp.i47 = tail call i32 @bcmp(ptr noundef nonnull dereferenceable(11) %6, ptr noundef nonnull dereferenceable(11) @.str.18, i64 11)
  %11 = icmp eq i32 %bcmp.i47, 0
  br label %_ZSteqIcSt11char_traitsIcEEbSt17basic_string_viewIT_T0_ES5_.exit

_ZSteqIcSt11char_traitsIcEEbSt17basic_string_viewIT_T0_ES5_.exit: ; preds = %_ZNSt11char_traitsIcE7compareEPKcS2_m.exit.i.i46, %_ZNK31cmGeneratorExpressionDAGChecker3TopEv.exit, %.thread56, %_ZNSt11char_traitsIcE7compareEPKcS2_m.exit.i.i42, %_ZNSt11char_traitsIcE7compareEPKcS2_m.exit.i.i38, %_ZNSt11char_traitsIcE7compareEPKcS2_m.exit.i.i34, %_ZNSt11char_traitsIcE7compareEPKcS2_m.exit.i.i
  %12 = phi i1 [ true, %_ZNSt11char_traitsIcE7compareEPKcS2_m.exit.i.i ], [ true, %_ZNSt11char_traitsIcE7compareEPKcS2_m.exit.i.i34 ], [ true, %_ZNSt11char_traitsIcE7compareEPKcS2_m.exit.i.i38 ], [ true, %_ZNSt11char_traitsIcE7compareEPKcS2_m.exit.i.i42 ], [ false, %.thread56 ], [ false, %_ZNK31cmGeneratorExpressionDAGChecker3TopEv.exit ], [ %11, %_ZNSt11char_traitsIcE7compareEPKcS2_m.exit.i.i46 ]
  ret i1 %12
}